; Function Attrs: mustprogress uwtable
define hidden void @_ZN3smt9theory_bv10init_modelERNS_15model_generatorE(ptr nocapture noundef nonnull align 8 dereferenceable(1048) %this, ptr noundef nonnull align 8 dereferenceable(104) %mg) unnamed_addr #3 align 2 {
entry:
  %call = tail call noalias noundef ptr @_ZN6memory8allocateEm(i64 noundef 112)
  %m = getelementptr inbounds i8, ptr %this, i64 24
  %0 = load ptr, ptr %m, align 8
  tail call void @_ZN10bv_factoryC1ER11ast_manager(ptr noundef nonnull align 8 dereferenceable(112) %call, ptr noundef nonnull align 8 dereferenceable(976) %0)
  %m_factory = getelementptr inbounds i8, ptr %this, i64 1040
  store ptr %call, ptr %m_factory, align 8
  tail call void @_ZN3smt15model_generator16register_factoryEP13value_factory(ptr noundef nonnull align 8 dereferenceable(104) %mg, ptr noundef nonnull %call)
  ret void
}